; Function Attrs: mustprogress uwtable
define noundef zeroext i1 @_ZNK6icu_778CalendareqERKS0_(ptr noundef nonnull align 8 dereferenceable(192) %0, ptr noundef nonnull align 8 dereferenceable(192) %1) unnamed_addr #1 align 2 {
  %3 = alloca i32, align 4
  call void @llvm.lifetime.start.p0(i64 4, ptr nonnull %3) #25
  store i32 0, ptr %3, align 4, !tbaa !13
  %4 = load ptr, ptr %0, align 8, !tbaa !15
  %5 = getelementptr inbounds nuw i8, ptr %4, i64 40
  %6 = load ptr, ptr %5, align 8
  %7 = tail call noundef signext i8 %6(ptr noundef nonnull align 8 dereferenceable(192) %0, ptr noundef nonnull align 8 dereferenceable(192) %1)
  %.not = icmp eq i8 %7, 0
  br i1 %.not, label %45, label %8

8:                                                ; preds = %2
  %9 = getelementptr inbounds nuw i8, ptr %0, i64 152
  %10 = load i8, ptr %9, align 8
  %11 = trunc i8 %10 to i1
  br i1 %11, label %22, label %12

12:                                               ; preds = %8
  %13 = load ptr, ptr %0, align 8, !tbaa !15
  %14 = getelementptr inbounds nuw i8, ptr %13, i64 248
  %15 = load ptr, ptr %14, align 8
  call void %15(ptr noundef nonnull align 8 dereferenceable(192) %0, ptr noundef nonnull align 4 dereferenceable(4) %3)
  %16 = load i32, ptr %3, align 4, !tbaa !13
  %17 = icmp slt i32 %16, 1
  br i1 %17, label %_ZN6icu_778Calendar10updateTimeER10UErrorCode.exit.i, label %_ZNK6icu_778Calendar15getTimeInMillisER10UErrorCode.exit9.thread

_ZN6icu_778Calendar10updateTimeER10UErrorCode.exit.i: ; preds = %12
  %18 = load i8, ptr %9, align 8
  %19 = and i8 %18, 20
  %or.cond.not.i.i = icmp eq i8 %19, 4
  %.v.i.i = select i1 %or.cond.not.i.i, i8 -10, i8 -12
  %20 = and i8 %.v.i.i, %18
  %21 = or disjoint i8 %20, 1
  store i8 %21, ptr %9, align 8
  br label %22

22:                                               ; preds = %_ZN6icu_778Calendar10updateTimeER10UErrorCode.exit.i, %8
  %.pr = phi i32 [ 0, %8 ], [ %16, %_ZN6icu_778Calendar10updateTimeER10UErrorCode.exit.i ]
  %23 = getelementptr inbounds nuw i8, ptr %0, i64 136
  %24 = load double, ptr %23, align 8, !tbaa !53
  %25 = getelementptr inbounds nuw i8, ptr %1, i64 152
  %26 = load i8, ptr %25, align 8
  %27 = trunc i8 %26 to i1
  br i1 %27, label %_ZN6icu_778Calendar10updateTimeER10UErrorCode.exit.thread.i8, label %28

28:                                               ; preds = %22
  %29 = load ptr, ptr %1, align 8, !tbaa !15
  %30 = getelementptr inbounds nuw i8, ptr %29, i64 248
  %31 = load ptr, ptr %30, align 8
  call void %31(ptr noundef nonnull align 8 dereferenceable(192) %1, ptr noundef nonnull align 4 dereferenceable(4) %3)
  %32 = load i32, ptr %3, align 4, !tbaa !13
  %33 = icmp slt i32 %32, 1
  br i1 %33, label %_ZN6icu_778Calendar10updateTimeER10UErrorCode.exit.i4, label %_ZNK6icu_778Calendar15getTimeInMillisER10UErrorCode.exit9

_ZN6icu_778Calendar10updateTimeER10UErrorCode.exit.i4: ; preds = %28
  %34 = load i8, ptr %25, align 8
  %35 = and i8 %34, 20
  %or.cond.not.i.i5 = icmp eq i8 %35, 4
  %.v.i.i6 = select i1 %or.cond.not.i.i5, i8 -10, i8 -12
  %36 = and i8 %.v.i.i6, %34
  %37 = or disjoint i8 %36, 1
  store i8 %37, ptr %25, align 8
  br label %_ZN6icu_778Calendar10updateTimeER10UErrorCode.exit.thread.i8

_ZN6icu_778Calendar10updateTimeER10UErrorCode.exit.thread.i8: ; preds = %_ZN6icu_778Calendar10updateTimeER10UErrorCode.exit.i4, %22
  %38 = phi i32 [ %32, %_ZN6icu_778Calendar10updateTimeER10UErrorCode.exit.i4 ], [ %.pr, %22 ]
  %39 = getelementptr inbounds nuw i8, ptr %1, i64 136
  %40 = load double, ptr %39, align 8, !tbaa !53
  br label %_ZNK6icu_778Calendar15getTimeInMillisER10UErrorCode.exit9

_ZNK6icu_778Calendar15getTimeInMillisER10UErrorCode.exit9: ; preds = %28, %_ZN6icu_778Calendar10updateTimeER10UErrorCode.exit.thread.i8
  %41 = phi i32 [ %38, %_ZN6icu_778Calendar10updateTimeER10UErrorCode.exit.thread.i8 ], [ %32, %28 ]
  %.0.i3 = phi double [ %40, %_ZN6icu_778Calendar10updateTimeER10UErrorCode.exit.thread.i8 ], [ 0.000000e+00, %28 ]
  %42 = fcmp oeq double %24, %.0.i3
  br i1 %42, label %_ZNK6icu_778Calendar15getTimeInMillisER10UErrorCode.exit9.thread, label %45

_ZNK6icu_778Calendar15getTimeInMillisER10UErrorCode.exit9.thread: ; preds = %12, %_ZNK6icu_778Calendar15getTimeInMillisER10UErrorCode.exit9
  %43 = phi i32 [ %16, %12 ], [ %41, %_ZNK6icu_778Calendar15getTimeInMillisER10UErrorCode.exit9 ]
  %44 = icmp slt i32 %43, 1
  br label %45

45:                                               ; preds = %_ZNK6icu_778Calendar15getTimeInMillisER10UErrorCode.exit9.thread, %_ZNK6icu_778Calendar15getTimeInMillisER10UErrorCode.exit9, %2
  %46 = phi i1 [ false, %_ZNK6icu_778Calendar15getTimeInMillisER10UErrorCode.exit9 ], [ false, %2 ], [ %44, %_ZNK6icu_778Calendar15getTimeInMillisER10UErrorCode.exit9.thread ]
  call void @llvm.lifetime.end.p0(i64 4, ptr nonnull %3) #25
  ret i1 %46
}